target datalayout = "e-m:e-p270:32:32-p271:32:32-p272:64:64-i64:64-i128:128-f80:128-n8:16:32:64-S128"
target triple = "x86_64-pc-linux-gnu"

%struct._zval_struct = type { %union._zend_value, %union.anon.3, %union.anon.6 }
%union._zend_value = type { i64 }
%union.anon.3 = type { i32 }
%union.anon.6 = type { i32 }
%struct._zend_refcounted_h = type { i32, %union.anon.1 }
%union.anon.1 = type { i32 }
%struct._pdo_stmt_t = type { ptr, ptr, [6 x i8], i16, ptr, ptr, ptr, ptr, i32, i32, %union.anon, ptr, ptr, ptr, i64, ptr, ptr, ptr, %struct._zend_object }
%union.anon = type { %struct.anon.0 }
%struct.anon.0 = type { %struct._zend_fcall_info_cache }
%struct._zend_fcall_info_cache = type { ptr, ptr, ptr, ptr, ptr }
%struct._zend_object = type { %struct._zend_refcounted_h, i32, i32, ptr, ptr, ptr, [1 x %struct._zval_struct] }
%struct.pdo_stmt_methods = type { ptr, ptr, ptr, ptr, ptr, ptr, ptr, ptr, ptr, ptr, ptr }
%struct.pdo_bound_param_data = type { %struct._zval_struct, %struct._zval_struct, i64, ptr, i64, ptr, ptr, i32, i32 }
%struct._zend_string = type { %struct._zend_refcounted_h, i64, i64, [1 x i8] }
%struct.anon.4 = type { i8, i8, %union.anon.5 }
%union.anon.5 = type { i16 }

; Function Attrs: alwaysinline nounwind uwtable
define internal i32 @zend_gc_delref(ptr noundef %0) #3 {
  %2 = alloca ptr, align 8
  store ptr %0, ptr %2, align 8, !tbaa !109
  %3 = load ptr, ptr %2, align 8, !tbaa !109
  %4 = getelementptr inbounds nuw %struct._zend_refcounted_h, ptr %3, i32 0, i32 0
  %5 = load i32, ptr %4, align 4, !tbaa !111
  %6 = icmp ugt i32 %5, 0
  call void @llvm.assume(i1 %6)
  br label %7

7:                                                ; preds = %1
  br label %8

8:                                                ; preds = %7
  %9 = load ptr, ptr %2, align 8, !tbaa !109
  %10 = getelementptr inbounds nuw %struct._zend_refcounted_h, ptr %9, i32 0, i32 0
  %11 = load i32, ptr %10, align 4, !tbaa !111
  %12 = add i32 %11, -1
  store i32 %12, ptr %10, align 4, !tbaa !111
  ret i32 %12
}

; Function Attrs: alwaysinline nounwind uwtable
define internal i32 @zval_gc_flags(i32 noundef %0) #3 {
  %2 = alloca i32, align 4
  store i32 %0, ptr %2, align 4, !tbaa !26
  %3 = load i32, ptr %2, align 4, !tbaa !26
  %4 = lshr i32 %3, 0
  %5 = and i32 %4, 1008
  ret i32 %5
}

; Function Attrs: alwaysinline nounwind uwtable
define internal zeroext i8 @zval_get_type(ptr noundef %0) #3 {
  %2 = alloca ptr, align 8
  store ptr %0, ptr %2, align 8, !tbaa !47
  %3 = load ptr, ptr %2, align 8, !tbaa !47
  %4 = getelementptr inbounds nuw %struct._zval_struct, ptr %3, i32 0, i32 1
  %5 = getelementptr inbounds nuw %struct.anon.4, ptr %4, i32 0, i32 0
  %6 = load i8, ptr %5, align 8, !tbaa !45
  ret i8 %6
}

; Function Attrs: alwaysinline nounwind uwtable
define internal void @zend_string_release_ex(ptr noundef %0, i1 noundef zeroext %1) #3 {
  %3 = alloca ptr, align 8
  %4 = alloca i8, align 1
  store ptr %0, ptr %3, align 8, !tbaa !39
  %5 = zext i1 %1 to i8
  store i8 %5, ptr %4, align 1, !tbaa !53
  %6 = load ptr, ptr %3, align 8, !tbaa !39
  %7 = getelementptr inbounds nuw %struct._zend_string, ptr %6, i32 0, i32 0
  %8 = getelementptr inbounds nuw %struct._zend_refcounted_h, ptr %7, i32 0, i32 1
  %9 = load i32, ptr %8, align 4, !tbaa !45
  %10 = call i32 @zval_gc_flags(i32 noundef %9)
  %11 = and i32 %10, 64
  %12 = icmp ne i32 %11, 0
  br i1 %12, label %27, label %13

13:                                               ; preds = %2
  %14 = load ptr, ptr %3, align 8, !tbaa !39
  %15 = getelementptr inbounds nuw %struct._zend_string, ptr %14, i32 0, i32 0
  %16 = call i32 @zend_gc_delref(ptr noundef %15)
  %17 = icmp eq i32 %16, 0
  br i1 %17, label %18, label %26

18:                                               ; preds = %13
  %19 = load i8, ptr %4, align 1, !tbaa !53, !range !54, !noundef !55
  %20 = trunc i8 %19 to i1
  br i1 %20, label %21, label %23

21:                                               ; preds = %18
  %22 = load ptr, ptr %3, align 8, !tbaa !39
  call void @free(ptr noundef %22) #14
  br label %25

23:                                               ; preds = %18
  %24 = load ptr, ptr %3, align 8, !tbaa !39
  call void @_efree(ptr noundef %24)
  br label %25

25:                                               ; preds = %23, %21
  br label %26

26:                                               ; preds = %25, %13
  br label %27

27:                                               ; preds = %26, %2
  ret void
}

; Function Attrs: nounwind uwtable
define internal void @param_dtor(ptr noundef %0) #0 {
  %2 = alloca ptr, align 8
  %3 = alloca ptr, align 8
  store ptr %0, ptr %2, align 8, !tbaa !47
  call void @llvm.lifetime.start.p0(i64 8, ptr %3) #14
  %4 = load ptr, ptr %2, align 8, !tbaa !47
  %5 = getelementptr inbounds nuw %struct._zval_struct, ptr %4, i32 0, i32 0
  %6 = load ptr, ptr %5, align 8, !tbaa !45
  store ptr %6, ptr %3, align 8, !tbaa !41
  %7 = load ptr, ptr %3, align 8, !tbaa !41
  %8 = getelementptr inbounds nuw %struct.pdo_bound_param_data, ptr %7, i32 0, i32 6
  %9 = load ptr, ptr %8, align 8, !tbaa !113
  %10 = getelementptr inbounds nuw %struct._pdo_stmt_t, ptr %9, i32 0, i32 0
  %11 = load ptr, ptr %10, align 8, !tbaa !27
  %12 = getelementptr inbounds nuw %struct.pdo_stmt_methods, ptr %11, i32 0, i32 5
  %13 = load ptr, ptr %12, align 8, !tbaa !117
  %14 = icmp ne ptr %13, null
  br i1 %14, label %15, label %28

15:                                               ; preds = %1
  %16 = load ptr, ptr %3, align 8, !tbaa !41
  %17 = getelementptr inbounds nuw %struct.pdo_bound_param_data, ptr %16, i32 0, i32 6
  %18 = load ptr, ptr %17, align 8, !tbaa !113
  %19 = getelementptr inbounds nuw %struct._pdo_stmt_t, ptr %18, i32 0, i32 0
  %20 = load ptr, ptr %19, align 8, !tbaa !27
  %21 = getelementptr inbounds nuw %struct.pdo_stmt_methods, ptr %20, i32 0, i32 5
  %22 = load ptr, ptr %21, align 8, !tbaa !117
  %23 = load ptr, ptr %3, align 8, !tbaa !41
  %24 = getelementptr inbounds nuw %struct.pdo_bound_param_data, ptr %23, i32 0, i32 6
  %25 = load ptr, ptr %24, align 8, !tbaa !113
  %26 = load ptr, ptr %3, align 8, !tbaa !41
  %27 = call i32 %22(ptr noundef %25, ptr noundef %26, i32 noundef 1)
  br label %28

28:                                               ; preds = %15, %1
  %29 = load ptr, ptr %3, align 8, !tbaa !41
  %30 = getelementptr inbounds nuw %struct.pdo_bound_param_data, ptr %29, i32 0, i32 3
  %31 = load ptr, ptr %30, align 8, !tbaa !99
  %32 = icmp ne ptr %31, null
  br i1 %32, label %33, label %37

33:                                               ; preds = %28
  %34 = load ptr, ptr %3, align 8, !tbaa !41
  %35 = getelementptr inbounds nuw %struct.pdo_bound_param_data, ptr %34, i32 0, i32 3
  %36 = load ptr, ptr %35, align 8, !tbaa !99
  call void @zend_string_release_ex(ptr noundef %36, i1 noundef zeroext false)
  br label %37

37:                                               ; preds = %33, %28
  %38 = load ptr, ptr %3, align 8, !tbaa !41
  %39 = getelementptr inbounds nuw %struct.pdo_bound_param_data, ptr %38, i32 0, i32 0
  %40 = call zeroext i8 @zval_get_type(ptr noundef %39)
  %41 = zext i8 %40 to i32
  %42 = icmp eq i32 %41, 0
  br i1 %42, label %52, label %43

43:                                               ; preds = %37
  %44 = load ptr, ptr %3, align 8, !tbaa !41
  %45 = getelementptr inbounds nuw %struct.pdo_bound_param_data, ptr %44, i32 0, i32 0
  call void @zval_ptr_dtor(ptr noundef %45)
  br label %46

46:                                               ; preds = %43
  %47 = load ptr, ptr %3, align 8, !tbaa !41
  %48 = getelementptr inbounds nuw %struct.pdo_bound_param_data, ptr %47, i32 0, i32 0
  %49 = getelementptr inbounds nuw %struct._zval_struct, ptr %48, i32 0, i32 1
  store i32 0, ptr %49, align 8, !tbaa !45
  br label %50

50:                                               ; preds = %46
  br label %51

51:                                               ; preds = %50
  br label %52

52:                                               ; preds = %51, %37
  %53 = load ptr, ptr %3, align 8, !tbaa !41
  %54 = getelementptr inbounds nuw %struct.pdo_bound_param_data, ptr %53, i32 0, i32 1
  %55 = call zeroext i8 @zval_get_type(ptr noundef %54)
  %56 = zext i8 %55 to i32
  %57 = icmp eq i32 %56, 0
  br i1 %57, label %61, label %58

58:                                               ; preds = %52
  %59 = load ptr, ptr %3, align 8, !tbaa !41
  %60 = getelementptr inbounds nuw %struct.pdo_bound_param_data, ptr %59, i32 0, i32 1
  call void @zval_ptr_dtor(ptr noundef %60)
  br label %61

61:                                               ; preds = %58, %52
  %62 = load ptr, ptr %3, align 8, !tbaa !41
  call void @_efree(ptr noundef %62)
  call void @llvm.lifetime.end.p0(i64 8, ptr %3) #14
  ret void
}