; Function Attrs: nounwind uwtable
define internal void @param_dtor(ptr noundef readonly captures(none) %0) #0 {
  %2 = load ptr, ptr %0, align 8, !tbaa !37
  %3 = getelementptr inbounds nuw i8, ptr %2, i64 64
  %4 = load ptr, ptr %3, align 8, !tbaa !95
  %5 = load ptr, ptr %4, align 8, !tbaa !24
  %6 = getelementptr inbounds nuw i8, ptr %5, i64 40
  %7 = load ptr, ptr %6, align 8, !tbaa !91
  %.not = icmp eq ptr %7, null
  br i1 %.not, label %10, label %8

8:                                                ; preds = %1
  %9 = tail call i32 %7(ptr noundef nonnull %4, ptr noundef nonnull %2, i32 noundef 1) #17
  br label %10

10:                                               ; preds = %8, %1
  %11 = getelementptr inbounds nuw i8, ptr %2, i64 40
  %12 = load ptr, ptr %11, align 8, !tbaa !87
  %.not14 = icmp eq ptr %12, null
  br i1 %.not14, label %zend_string_release_ex.exit, label %13

13:                                               ; preds = %10
  %14 = getelementptr inbounds nuw i8, ptr %12, i64 4
  %15 = load i32, ptr %14, align 4, !tbaa !37
  %16 = and i32 %15, 64
  %.not.i = icmp eq i32 %16, 0
  br i1 %.not.i, label %17, label %zend_string_release_ex.exit

17:                                               ; preds = %13
  %18 = load i32, ptr %12, align 4, !tbaa !38
  %19 = icmp ne i32 %18, 0
  tail call void @llvm.assume(i1 %19)
  %20 = add i32 %18, -1
  store i32 %20, ptr %12, align 4, !tbaa !38
  %21 = icmp eq i32 %20, 0
  br i1 %21, label %22, label %zend_string_release_ex.exit

22:                                               ; preds = %17
  tail call void @_efree(ptr noundef nonnull %12) #17
  br label %zend_string_release_ex.exit

zend_string_release_ex.exit:                      ; preds = %22, %17, %13, %10
  %23 = getelementptr inbounds nuw i8, ptr %2, i64 8
  %24 = load i8, ptr %23, align 8, !tbaa !37
  %25 = icmp eq i8 %24, 0
  br i1 %25, label %27, label %26

26:                                               ; preds = %zend_string_release_ex.exit
  tail call void @zval_ptr_dtor(ptr noundef nonnull %2) #17
  store i32 0, ptr %23, align 8, !tbaa !37
  br label %27

27:                                               ; preds = %26, %zend_string_release_ex.exit
  %28 = getelementptr inbounds nuw i8, ptr %2, i64 24
  %29 = load i8, ptr %28, align 8, !tbaa !37
  %30 = icmp eq i8 %29, 0
  br i1 %30, label %33, label %31

31:                                               ; preds = %27
  %32 = getelementptr inbounds nuw i8, ptr %2, i64 16
  tail call void @zval_ptr_dtor(ptr noundef nonnull %32) #17
  br label %33

33:                                               ; preds = %31, %27
  tail call void @_efree(ptr noundef nonnull %2) #17
  ret void
}